target datalayout = "e-m:e-p270:32:32-p271:32:32-p272:64:64-i64:64-i128:128-f80:128-n8:16:32:64-S128"
target triple = "x86_64-unknown-linux-gnu"

%"class.nla::emonics" = type { %class.trail_stack, %class.union_find, %class.svector, ptr, %class.vector.1, %class.svector, i32, %class.svector.2, %"struct.nla::emonics::hash_canonical", %"struct.nla::emonics::eq_canonical", %class.map }
%class.trail_stack = type { %class.ptr_vector, %class.svector, %class.region }
%class.ptr_vector = type { %class.vector }
%class.vector = type { ptr }
%class.region = type { ptr, ptr, ptr, ptr, ptr }
%class.union_find = type { ptr, ptr, %class.svector, %class.svector, %class.svector, %"class.union_find<nla::emonics>::mk_var_trail" }
%"class.union_find<nla::emonics>::mk_var_trail" = type { %class.trail, ptr }
%class.trail = type { ptr }
%class.vector.1 = type { ptr }
%class.svector = type { %class.vector.0 }
%class.vector.0 = type { ptr }
%class.svector.2 = type { %class.vector.3 }
%class.vector.3 = type { ptr }
%"struct.nla::emonics::hash_canonical" = type { ptr }
%"struct.nla::emonics::eq_canonical" = type { ptr }
%class.map = type { %class.table2map }
%class.table2map = type { %class.core_hashtable }
%class.core_hashtable = type <{ %"struct.table2map<default_map_entry<unsigned int, svector<unsigned int>>, nla::emonics::hash_canonical, nla::emonics::eq_canonical>::entry_hash_proc", %"struct.table2map<default_map_entry<unsigned int, svector<unsigned int>>, nla::emonics::hash_canonical, nla::emonics::eq_canonical>::entry_eq_proc", ptr, i32, i32, i32, [4 x i8] }>
%"struct.table2map<default_map_entry<unsigned int, svector<unsigned int>>, nla::emonics::hash_canonical, nla::emonics::eq_canonical>::entry_hash_proc" = type { %"struct.nla::emonics::hash_canonical" }
%"struct.table2map<default_map_entry<unsigned int, svector<unsigned int>>, nla::emonics::hash_canonical, nla::emonics::eq_canonical>::entry_eq_proc" = type { %"struct.nla::emonics::eq_canonical" }
%"class.nla::monic" = type <{ %"class.nla::mon_eq", %class.svector, i8, [3 x i8], i32, i8, i8, [6 x i8] }>
%"class.nla::mon_eq" = type { i32, %class.svector }

; Function Attrs: mustprogress nounwind uwtable
define linkonce_odr hidden void @_ZN3nla5monic11set_visitedEj(ptr noundef nonnull align 8 dereferenceable(34) %this, i32 noundef %v) #4 comdat align 2 {
entry:
  %this.addr = alloca ptr, align 8
  %v.addr = alloca i32, align 4
  store ptr %this, ptr %this.addr, align 8
  store i32 %v, ptr %v.addr, align 4
  %this1 = load ptr, ptr %this.addr, align 8
  %0 = load i32, ptr %v.addr, align 4
  %m_visited = getelementptr inbounds %"class.nla::monic", ptr %this1, i32 0, i32 4
  store i32 %0, ptr %m_visited, align 4
  ret void
}

; Function Attrs: mustprogress nounwind uwtable
define linkonce_odr hidden noundef nonnull align 8 dereferenceable(34) ptr @_ZN6vectorIN3nla5monicELb1EjEixEj(ptr noundef nonnull align 8 dereferenceable(8) %this, i32 noundef %idx) #4 comdat align 2 {
entry:
  %this.addr = alloca ptr, align 8
  %idx.addr = alloca i32, align 4
  store ptr %this, ptr %this.addr, align 8
  store i32 %idx, ptr %idx.addr, align 4
  %this1 = load ptr, ptr %this.addr, align 8
  %m_data = getelementptr inbounds %class.vector.1, ptr %this1, i32 0, i32 0
  %0 = load ptr, ptr %m_data, align 8
  %1 = load i32, ptr %idx.addr, align 4
  %idxprom = zext i32 %1 to i64
  %arrayidx = getelementptr inbounds %"class.nla::monic", ptr %0, i64 %idxprom
  ret ptr %arrayidx
}

; Function Attrs: mustprogress nounwind uwtable
define linkonce_odr hidden noundef nonnull align 4 dereferenceable(4) ptr @_ZN6vectorIjLb0EjEixEj(ptr noundef nonnull align 8 dereferenceable(8) %this, i32 noundef %idx) #4 comdat align 2 {
entry:
  %this.addr = alloca ptr, align 8
  %idx.addr = alloca i32, align 4
  store ptr %this, ptr %this.addr, align 8
  store i32 %idx, ptr %idx.addr, align 4
  %this1 = load ptr, ptr %this.addr, align 8
  %m_data = getelementptr inbounds %class.vector.0, ptr %this1, i32 0, i32 0
  %0 = load ptr, ptr %m_data, align 8
  %1 = load i32, ptr %idx.addr, align 4
  %idxprom = zext i32 %1 to i64
  %arrayidx = getelementptr inbounds i32, ptr %0, i64 %idxprom
  ret ptr %arrayidx
}

; Function Attrs: mustprogress nounwind uwtable
define linkonce_odr hidden noundef i32 @_ZNK3nla6mon_eq3varEv(ptr noundef nonnull align 8 dereferenceable(16) %this) #4 comdat align 2 {
entry:
  %this.addr = alloca ptr, align 8
  store ptr %this, ptr %this.addr, align 8
  %this1 = load ptr, ptr %this.addr, align 8
  %m_v = getelementptr inbounds %"class.nla::mon_eq", ptr %this1, i32 0, i32 0
  %0 = load i32, ptr %m_v, align 8
  ret i32 %0
}

; Function Attrs: mustprogress uwtable
define hidden void @_ZNK3nla7emonics11set_visitedERNS_5monicE(ptr noundef nonnull align 8 dereferenceable(216) %this, ptr noundef nonnull align 8 dereferenceable(34) %m) #5 align 2 {
entry:
  %this.addr = alloca ptr, align 8
  %m.addr = alloca ptr, align 8
  store ptr %this, ptr %this.addr, align 8
  store ptr %m, ptr %m.addr, align 8
  %this1 = load ptr, ptr %this.addr, align 8
  %m_monics = getelementptr inbounds %"class.nla::emonics", ptr %this1, i32 0, i32 4
  %m_var2index = getelementptr inbounds %"class.nla::emonics", ptr %this1, i32 0, i32 5
  %0 = load ptr, ptr %m.addr, align 8
  %call = call noundef i32 @_ZNK3nla6mon_eq3varEv(ptr noundef nonnull align 8 dereferenceable(16) %0)
  %call2 = call noundef nonnull align 4 dereferenceable(4) ptr @_ZN6vectorIjLb0EjEixEj(ptr noundef nonnull align 8 dereferenceable(8) %m_var2index, i32 noundef %call)
  %1 = load i32, ptr %call2, align 4
  %call3 = call noundef nonnull align 8 dereferenceable(34) ptr @_ZN6vectorIN3nla5monicELb1EjEixEj(ptr noundef nonnull align 8 dereferenceable(8) %m_monics, i32 noundef %1)
  %m_visited = getelementptr inbounds %"class.nla::emonics", ptr %this1, i32 0, i32 6
  %2 = load i32, ptr %m_visited, align 8
  call void @_ZN3nla5monic11set_visitedEj(ptr noundef nonnull align 8 dereferenceable(34) %call3, i32 noundef %2)
  ret void
}