; Function Attrs: mustprogress nofree norecurse nosync nounwind willreturn memory(readwrite, inaccessiblemem: none) uwtable
define hidden void @_ZNK3nla7emonics11set_visitedERNS_5monicE(ptr nocapture noundef nonnull readonly align 8 dereferenceable(216) %this, ptr nocapture noundef nonnull readonly align 8 dereferenceable(34) %m) local_unnamed_addr #5 align 2 {
entry:
  %m_monics = getelementptr inbounds i8, ptr %this, i64 128
  %m_var2index = getelementptr inbounds i8, ptr %this, i64 136
  %0 = load i32, ptr %m, align 8
  %1 = load ptr, ptr %m_var2index, align 8
  %idxprom.i = zext i32 %0 to i64
  %arrayidx.i = getelementptr inbounds i32, ptr %1, i64 %idxprom.i
  %2 = load i32, ptr %arrayidx.i, align 4
  %3 = load ptr, ptr %m_monics, align 8
  %idxprom.i1 = zext i32 %2 to i64
  %m_visited = getelementptr inbounds i8, ptr %this, i64 144
  %4 = load i32, ptr %m_visited, align 8
  %m_visited.i = getelementptr inbounds %"class.nla::monic", ptr %3, i64 %idxprom.i1, i32 4
  store i32 %4, ptr %m_visited.i, align 4
  ret void
}